target datalayout = "e-m:e-p270:32:32-p271:32:32-p272:64:64-i64:64-i128:128-f80:128-n8:16:32:64-S128"
target triple = "x86_64-pc-linux-gnu"

@_ZN15ClassListWriter15_classlist_fileE = hidden global ptr null, align 8
@DumpLoadedClassList = external global ptr, align 8
@.str = private unnamed_addr constant [33 x i8] c"# NOTE: Do not modify this file.\00", align 1
@.str.4 = private unnamed_addr constant [2 x i8] c"#\00", align 1
@.str.5 = private unnamed_addr constant [82 x i8] c"# This file is generated via the -XX:DumpLoadedClassList=<class_list_file> option\00", align 1
@.str.6 = private unnamed_addr constant [59 x i8] c"# and is used at CDS archive dump time (see -Xshare:dump).\00", align 1

; Function Attrs: mustprogress nounwind uwtable
define hidden void @_ZN15ClassListWriter4initEv() #1 align 2 {
  %1 = alloca i64, align 8
  %2 = alloca i8, align 1
  %3 = alloca ptr, align 8
  %4 = load ptr, ptr @DumpLoadedClassList, align 8
  %5 = icmp ne ptr %4, null
  br i1 %5, label %6, label %19

6:                                                ; preds = %0
  %7 = load ptr, ptr @DumpLoadedClassList, align 8
  %8 = call noundef ptr @_Z13make_log_namePKcS0_(ptr noundef %7, ptr noundef null)
  store ptr %8, ptr %3, align 8
  store i64 72, ptr %1, align 8
  store i8 9, ptr %2, align 1
  %9 = load i64, ptr %1, align 8
  %10 = load i8, ptr %2, align 1
  %11 = call noundef ptr @_Z12AllocateHeapm8MEMFLAGSN17AllocFailStrategy13AllocFailEnumE(i64 noundef %9, i8 noundef zeroext %10, i32 noundef 0) #10
  %12 = load ptr, ptr %3, align 8
  call void @_ZN10fileStreamC1EPKc(ptr noundef nonnull align 8 dereferenceable(65) %11, ptr noundef %12)
  store ptr %11, ptr @_ZN15ClassListWriter15_classlist_fileE, align 8
  %13 = load ptr, ptr @_ZN15ClassListWriter15_classlist_fileE, align 8
  call void (ptr, ptr, ...) @_ZN12outputStream8print_crEPKcz(ptr noundef nonnull align 8 dereferenceable(56) %13, ptr noundef @.str)
  %14 = load ptr, ptr @_ZN15ClassListWriter15_classlist_fileE, align 8
  call void (ptr, ptr, ...) @_ZN12outputStream8print_crEPKcz(ptr noundef nonnull align 8 dereferenceable(56) %14, ptr noundef @.str.4)
  %15 = load ptr, ptr @_ZN15ClassListWriter15_classlist_fileE, align 8
  call void (ptr, ptr, ...) @_ZN12outputStream8print_crEPKcz(ptr noundef nonnull align 8 dereferenceable(56) %15, ptr noundef @.str.5)
  %16 = load ptr, ptr @_ZN15ClassListWriter15_classlist_fileE, align 8
  call void (ptr, ptr, ...) @_ZN12outputStream8print_crEPKcz(ptr noundef nonnull align 8 dereferenceable(56) %16, ptr noundef @.str.6)
  %17 = load ptr, ptr @_ZN15ClassListWriter15_classlist_fileE, align 8
  call void (ptr, ptr, ...) @_ZN12outputStream8print_crEPKcz(ptr noundef nonnull align 8 dereferenceable(56) %17, ptr noundef @.str.4)
  %18 = load ptr, ptr %3, align 8
  call void @_Z8FreeHeapPv(ptr noundef %18)
  br label %19

19:                                               ; preds = %6, %0
  ret void
}