; Function Attrs: mustprogress nounwind uwtable
define hidden void @_ZN15ClassListWriter4initEv() local_unnamed_addr #0 align 2 {
  %1 = load ptr, ptr @DumpLoadedClassList, align 8
  %.not = icmp eq ptr %1, null
  br i1 %.not, label %9, label %2

2:                                                ; preds = %0
  %3 = tail call noundef ptr @_Z13make_log_namePKcS0_(ptr noundef nonnull %1, ptr noundef null) #11
  %4 = tail call noundef ptr @_Z12AllocateHeapm8MEMFLAGSN17AllocFailStrategy13AllocFailEnumE(i64 noundef 72, i8 noundef zeroext 9, i32 noundef 0) #11
  tail call void @_ZN10fileStreamC1EPKc(ptr noundef nonnull align 8 dereferenceable(65) %4, ptr noundef %3) #11
  store ptr %4, ptr @_ZN15ClassListWriter15_classlist_fileE, align 8
  tail call void (ptr, ptr, ...) @_ZN12outputStream8print_crEPKcz(ptr noundef nonnull align 8 dereferenceable(56) %4, ptr noundef nonnull @.str) #11
  %5 = load ptr, ptr @_ZN15ClassListWriter15_classlist_fileE, align 8
  tail call void (ptr, ptr, ...) @_ZN12outputStream8print_crEPKcz(ptr noundef nonnull align 8 dereferenceable(56) %5, ptr noundef nonnull @.str.4) #11
  %6 = load ptr, ptr @_ZN15ClassListWriter15_classlist_fileE, align 8
  tail call void (ptr, ptr, ...) @_ZN12outputStream8print_crEPKcz(ptr noundef nonnull align 8 dereferenceable(56) %6, ptr noundef nonnull @.str.5) #11
  %7 = load ptr, ptr @_ZN15ClassListWriter15_classlist_fileE, align 8
  tail call void (ptr, ptr, ...) @_ZN12outputStream8print_crEPKcz(ptr noundef nonnull align 8 dereferenceable(56) %7, ptr noundef nonnull @.str.6) #11
  %8 = load ptr, ptr @_ZN15ClassListWriter15_classlist_fileE, align 8
  tail call void (ptr, ptr, ...) @_ZN12outputStream8print_crEPKcz(ptr noundef nonnull align 8 dereferenceable(56) %8, ptr noundef nonnull @.str.4) #11
  tail call void @_Z8FreeHeapPv(ptr noundef %3) #11
  br label %9

9:                                                ; preds = %2, %0
  ret void
}